target datalayout = "e-m:e-p270:32:32-p271:32:32-p272:64:64-i64:64-i128:128-f80:128-n8:16:32:64-S128"
target triple = "x86_64-pc-linux-gnu"

; Function Attrs: mustprogress nounwind uwtable
define void @_ZN6LibRaw21removeExcessiveSpacesEPc(ptr noundef %0) #4 align 2 {
  %2 = alloca ptr, align 8
  %3 = alloca i32, align 4
  %4 = alloca i32, align 4
  %5 = alloca i32, align 4
  %6 = alloca i8, align 1
  store ptr %0, ptr %2, align 8, !tbaa !89
  call void @llvm.lifetime.start.p0(i64 4, ptr %3) #8
  %7 = load ptr, ptr %2, align 8, !tbaa !89
  %8 = call i64 @strlen(ptr noundef %7) #9
  %9 = trunc i64 %8 to i32
  store i32 %9, ptr %3, align 4, !tbaa !11
  call void @llvm.lifetime.start.p0(i64 4, ptr %4) #8
  store i32 0, ptr %4, align 4, !tbaa !11
  call void @llvm.lifetime.start.p0(i64 4, ptr %5) #8
  store i32 -1, ptr %5, align 4, !tbaa !11
  call void @llvm.lifetime.start.p0(i64 1, ptr %6) #8
  store i8 0, ptr %6, align 1, !tbaa !96
  br label %10

10:                                               ; preds = %25, %1
  %11 = load i32, ptr %5, align 4, !tbaa !11
  %12 = add nsw i32 %11, 1
  store i32 %12, ptr %5, align 4, !tbaa !11
  %13 = load i32, ptr %3, align 4, !tbaa !11
  %14 = icmp slt i32 %12, %13
  br i1 %14, label %15, label %23

15:                                               ; preds = %10
  %16 = load ptr, ptr %2, align 8, !tbaa !89
  %17 = load i32, ptr %5, align 4, !tbaa !11
  %18 = sext i32 %17 to i64
  %19 = getelementptr inbounds i8, ptr %16, i64 %18
  %20 = load i8, ptr %19, align 1, !tbaa !76
  %21 = sext i8 %20 to i32
  %22 = icmp eq i32 %21, 32
  br label %23

23:                                               ; preds = %15, %10
  %24 = phi i1 [ false, %10 ], [ %22, %15 ]
  br i1 %24, label %25, label %26

25:                                               ; preds = %23
  br label %10, !llvm.loop !98

26:                                               ; preds = %23
  br label %27

27:                                               ; preds = %71, %26
  %28 = load i32, ptr %5, align 4, !tbaa !11
  %29 = load i32, ptr %3, align 4, !tbaa !11
  %30 = icmp slt i32 %28, %29
  br i1 %30, label %31, label %72

31:                                               ; preds = %27
  %32 = load ptr, ptr %2, align 8, !tbaa !89
  %33 = load i32, ptr %5, align 4, !tbaa !11
  %34 = sext i32 %33 to i64
  %35 = getelementptr inbounds i8, ptr %32, i64 %34
  %36 = load i8, ptr %35, align 1, !tbaa !76
  %37 = sext i8 %36 to i32
  %38 = icmp ne i32 %37, 32
  br i1 %38, label %39, label %51

39:                                               ; preds = %31
  %40 = load ptr, ptr %2, align 8, !tbaa !89
  %41 = load i32, ptr %5, align 4, !tbaa !11
  %42 = add nsw i32 %41, 1
  store i32 %42, ptr %5, align 4, !tbaa !11
  %43 = sext i32 %41 to i64
  %44 = getelementptr inbounds i8, ptr %40, i64 %43
  %45 = load i8, ptr %44, align 1, !tbaa !76
  %46 = load ptr, ptr %2, align 8, !tbaa !89
  %47 = load i32, ptr %4, align 4, !tbaa !11
  %48 = add nsw i32 %47, 1
  store i32 %48, ptr %4, align 4, !tbaa !11
  %49 = sext i32 %47 to i64
  %50 = getelementptr inbounds i8, ptr %46, i64 %49
  store i8 %45, ptr %50, align 1, !tbaa !76
  store i8 0, ptr %6, align 1, !tbaa !96
  br label %71

51:                                               ; preds = %31
  %52 = load ptr, ptr %2, align 8, !tbaa !89
  %53 = load i32, ptr %5, align 4, !tbaa !11
  %54 = add nsw i32 %53, 1
  store i32 %54, ptr %5, align 4, !tbaa !11
  %55 = sext i32 %53 to i64
  %56 = getelementptr inbounds i8, ptr %52, i64 %55
  %57 = load i8, ptr %56, align 1, !tbaa !76
  %58 = sext i8 %57 to i32
  %59 = icmp eq i32 %58, 32
  br i1 %59, label %60, label %70

60:                                               ; preds = %51
  %61 = load i8, ptr %6, align 1, !tbaa !96, !range !99, !noundef !100
  %62 = trunc i8 %61 to i1
  br i1 %62, label %69, label %63

63:                                               ; preds = %60
  %64 = load ptr, ptr %2, align 8, !tbaa !89
  %65 = load i32, ptr %4, align 4, !tbaa !11
  %66 = add nsw i32 %65, 1
  store i32 %66, ptr %4, align 4, !tbaa !11
  %67 = sext i32 %65 to i64
  %68 = getelementptr inbounds i8, ptr %64, i64 %67
  store i8 32, ptr %68, align 1, !tbaa !76
  store i8 1, ptr %6, align 1, !tbaa !96
  br label %69

69:                                               ; preds = %63, %60
  br label %70

70:                                               ; preds = %69, %51
  br label %71

71:                                               ; preds = %70, %39
  br label %27, !llvm.loop !101

72:                                               ; preds = %27
  %73 = load ptr, ptr %2, align 8, !tbaa !89
  %74 = load i32, ptr %4, align 4, !tbaa !11
  %75 = sub nsw i32 %74, 1
  %76 = sext i32 %75 to i64
  %77 = getelementptr inbounds i8, ptr %73, i64 %76
  %78 = load i8, ptr %77, align 1, !tbaa !76
  %79 = sext i8 %78 to i32
  %80 = icmp eq i32 %79, 32
  br i1 %80, label %81, label %87

81:                                               ; preds = %72
  %82 = load ptr, ptr %2, align 8, !tbaa !89
  %83 = load i32, ptr %4, align 4, !tbaa !11
  %84 = sub nsw i32 %83, 1
  %85 = sext i32 %84 to i64
  %86 = getelementptr inbounds i8, ptr %82, i64 %85
  store i8 0, ptr %86, align 1, !tbaa !76
  br label %87

87:                                               ; preds = %81, %72
  call void @llvm.lifetime.end.p0(i64 1, ptr %6) #8
  call void @llvm.lifetime.end.p0(i64 4, ptr %5) #8
  call void @llvm.lifetime.end.p0(i64 4, ptr %4) #8
  call void @llvm.lifetime.end.p0(i64 4, ptr %3) #8
  ret void
}