; Function Attrs: mustprogress nofree nounwind memory(argmem: readwrite) uwtable
define void @_ZN6LibRaw21removeExcessiveSpacesEPc(ptr noundef captures(none) %0) local_unnamed_addr #9 align 2 {
  %2 = tail call i64 @strlen(ptr noundef nonnull dereferenceable(1) %0) #12
  %3 = trunc i64 %2 to i32
  %smax = tail call i32 @llvm.smax.i32(i32 %3, i32 0)
  %4 = add nsw i32 %smax, -1
  %wide.trip.count = sext i32 %4 to i64
  br label %5

5:                                                ; preds = %6, %1
  %indvars.iv = phi i64 [ %indvars.iv.next, %6 ], [ -1, %1 ]
  %exitcond.not = icmp eq i64 %indvars.iv, %wide.trip.count
  br i1 %exitcond.not, label %._crit_edge, label %6

6:                                                ; preds = %5
  %indvars.iv.next = add nsw i64 %indvars.iv, 1
  %7 = getelementptr inbounds i8, ptr %0, i64 %indvars.iv.next
  %8 = load i8, ptr %7, align 1, !tbaa !73
  %9 = icmp eq i8 %8, 32
  br i1 %9, label %5, label %.critedge, !llvm.loop !89

.critedge:                                        ; preds = %6
  %10 = trunc nuw nsw i64 %indvars.iv.next to i32
  %11 = icmp slt i32 %10, %3
  br i1 %11, label %.lr.ph.preheader, label %._crit_edge

.lr.ph.preheader:                                 ; preds = %.critedge
  %12 = and i64 %indvars.iv.next, 4294967295
  %wide.trip.count32 = and i64 %2, 4294967295
  br label %.lr.ph

.lr.ph:                                           ; preds = %.lr.ph.preheader, %18
  %indvars.iv30 = phi i64 [ %12, %.lr.ph.preheader ], [ %indvars.iv.next31, %18 ]
  %.028 = phi i1 [ false, %.lr.ph.preheader ], [ %.not, %18 ]
  %.02326 = phi i32 [ 0, %.lr.ph.preheader ], [ %.124, %18 ]
  %13 = getelementptr inbounds nuw i8, ptr %0, i64 %indvars.iv30
  %14 = load i8, ptr %13, align 1, !tbaa !73
  %.not = icmp eq i8 %14, 32
  %brmerge.not = and i1 %.not, %.028
  br i1 %brmerge.not, label %18, label %.sink.split

.sink.split:                                      ; preds = %.lr.ph
  %15 = add nsw i32 %.02326, 1
  %16 = sext i32 %.02326 to i64
  %17 = getelementptr inbounds i8, ptr %0, i64 %16
  store i8 %14, ptr %17, align 1, !tbaa !73
  br label %18

18:                                               ; preds = %.lr.ph, %.sink.split
  %.124 = phi i32 [ %15, %.sink.split ], [ %.02326, %.lr.ph ]
  %indvars.iv.next31 = add nuw nsw i64 %indvars.iv30, 1
  %exitcond33.not = icmp eq i64 %indvars.iv.next31, %wide.trip.count32
  br i1 %exitcond33.not, label %._crit_edge.loopexit, label %.lr.ph, !llvm.loop !90

._crit_edge.loopexit:                             ; preds = %18
  %19 = sext i32 %.124 to i64
  br label %._crit_edge

._crit_edge:                                      ; preds = %5, %._crit_edge.loopexit, %.critedge
  %.023.lcssa = phi i64 [ 0, %.critedge ], [ %19, %._crit_edge.loopexit ], [ 0, %5 ]
  %20 = getelementptr i8, ptr %0, i64 %.023.lcssa
  %21 = getelementptr i8, ptr %20, i64 -1
  %22 = load i8, ptr %21, align 1, !tbaa !73
  %23 = icmp eq i8 %22, 32
  br i1 %23, label %24, label %25

24:                                               ; preds = %._crit_edge
  store i8 0, ptr %21, align 1, !tbaa !73
  br label %25

25:                                               ; preds = %24, %._crit_edge
  ret void
}